target datalayout = "e-m:e-p270:32:32-p271:32:32-p272:64:64-i64:64-i128:128-f80:128-n8:16:32:64-S128"
target triple = "x86_64-unknown-linux-gnu"

%"struct.std::array" = type { [2 x i64] }
%"class.arrow::Decimal128" = type { %"class.arrow::BasicDecimal128" }
%"class.arrow::BasicDecimal128" = type { %"class.arrow::GenericBasicDecimal" }
%"class.arrow::GenericBasicDecimal" = type { %"struct.std::array" }
%"class.arrow::Result" = type { %"class.arrow::Status", %"class.arrow::internal::AlignedStorage" }
%"class.arrow::Status" = type { ptr }
%"class.arrow::internal::AlignedStorage" = type { %"union.std::aligned_storage<16, 8>::type" }
%"union.std::aligned_storage<16, 8>::type" = type { [16 x i8] }
%"class.std::basic_string_view" = type { i64, ptr }

; Function Attrs: mustprogress nounwind uwtable
define linkonce_odr noundef ptr @_ZSt7launderIN5arrow10Decimal128EEPT_S3_(ptr noundef %__p) #2 comdat {
entry:
  %__p.addr = alloca ptr, align 8
  store ptr %__p, ptr %__p.addr, align 8
  %0 = load ptr, ptr %__p.addr, align 8
  ret ptr %0
}

; Function Attrs: mustprogress nounwind uwtable
define linkonce_odr noundef ptr @_ZN5arrow8internal14AlignedStorageINS_10Decimal128EE3getEv(ptr noundef nonnull align 8 dereferenceable(16) %this) #2 comdat align 2 {
entry:
  %this.addr = alloca ptr, align 8
  store ptr %this, ptr %this.addr, align 8
  %this1 = load ptr, ptr %this.addr, align 8
  %data_ = getelementptr inbounds %"class.arrow::internal::AlignedStorage", ptr %this1, i32 0, i32 0
  %call = call noundef ptr @_ZSt7launderIN5arrow10Decimal128EEPT_S3_(ptr noundef %data_) #12
  ret ptr %call
}

; Function Attrs: mustprogress nounwind uwtable
define linkonce_odr noundef zeroext i1 @_ZNK5arrow6Status2okEv(ptr noundef nonnull align 8 dereferenceable(8) %this) #2 comdat align 2 {
entry:
  %this.addr = alloca ptr, align 8
  store ptr %this, ptr %this.addr, align 8
  %this1 = load ptr, ptr %this.addr, align 8
  %state_ = getelementptr inbounds %"class.arrow::Status", ptr %this1, i32 0, i32 0
  %0 = load ptr, ptr %state_, align 8
  %cmp = icmp eq ptr %0, null
  ret i1 %cmp
}

; Function Attrs: mustprogress nounwind uwtable
define linkonce_odr void @_ZN5arrow19GenericBasicDecimalINS_15BasicDecimal128ELi128ELi2EEC2Ev(ptr noundef nonnull align 8 dereferenceable(16) %this) unnamed_addr #2 comdat align 2 {
entry:
  %this.addr = alloca ptr, align 8
  store ptr %this, ptr %this.addr, align 8
  %this1 = load ptr, ptr %this.addr, align 8
  %array_ = getelementptr inbounds %"class.arrow::GenericBasicDecimal", ptr %this1, i32 0, i32 0
  %_M_elems = getelementptr inbounds %"struct.std::array", ptr %array_, i32 0, i32 0
  %arrayinit.begin = getelementptr inbounds [2 x i64], ptr %_M_elems, i64 0, i64 0
  store i64 0, ptr %arrayinit.begin, align 8
  %arrayinit.start = getelementptr inbounds i64, ptr %arrayinit.begin, i64 1
  %arrayinit.end = getelementptr inbounds i64, ptr %arrayinit.begin, i64 2
  br label %arrayinit.body

arrayinit.body:                                   ; preds = %arrayinit.body, %entry
  %arrayinit.cur = phi ptr [ %arrayinit.start, %entry ], [ %arrayinit.next, %arrayinit.body ]
  store i64 0, ptr %arrayinit.cur, align 8
  %arrayinit.next = getelementptr inbounds i64, ptr %arrayinit.cur, i64 1
  %arrayinit.done = icmp eq ptr %arrayinit.next, %arrayinit.end
  br i1 %arrayinit.done, label %arrayinit.end2, label %arrayinit.body

arrayinit.end2:                                   ; preds = %arrayinit.body
  ret void
}

; Function Attrs: mustprogress nounwind uwtable
define linkonce_odr { i64, i64 } @_ZN5arrow6ResultINS_10Decimal128EE15MoveValueUnsafeEv(ptr noundef nonnull align 8 dereferenceable(24) %this) #2 comdat align 2 {
entry:
  %retval = alloca %"class.arrow::Decimal128", align 8
  %this.addr = alloca ptr, align 8
  store ptr %this, ptr %this.addr, align 8
  %this1 = load ptr, ptr %this.addr, align 8
  %storage_ = getelementptr inbounds %"class.arrow::Result", ptr %this1, i32 0, i32 1
  %call = call noundef ptr @_ZN5arrow8internal14AlignedStorageINS_10Decimal128EE3getEv(ptr noundef nonnull align 8 dereferenceable(16) %storage_) #12
  call void @llvm.memcpy.p0.p0.i64(ptr align 8 %retval, ptr align 8 %call, i64 16, i1 false)
  %coerce.dive = getelementptr inbounds %"class.arrow::Decimal128", ptr %retval, i32 0, i32 0
  %coerce.dive2 = getelementptr inbounds %"class.arrow::BasicDecimal128", ptr %coerce.dive, i32 0, i32 0
  %coerce.dive3 = getelementptr inbounds %"class.arrow::GenericBasicDecimal", ptr %coerce.dive2, i32 0, i32 0
  %coerce.dive4 = getelementptr inbounds %"struct.std::array", ptr %coerce.dive3, i32 0, i32 0
  %0 = load { i64, i64 }, ptr %coerce.dive4, align 8
  ret { i64, i64 } %0
}

; Function Attrs: mustprogress nounwind uwtable
define linkonce_odr noundef zeroext i1 @_ZNK5arrow6ResultINS_10Decimal128EE2okEv(ptr noundef nonnull align 8 dereferenceable(24) %this) #2 comdat align 2 {
entry:
  %this.addr = alloca ptr, align 8
  store ptr %this, ptr %this.addr, align 8
  %this1 = load ptr, ptr %this.addr, align 8
  %status_ = getelementptr inbounds %"class.arrow::Result", ptr %this1, i32 0, i32 0
  %call = call noundef zeroext i1 @_ZNK5arrow6Status2okEv(ptr noundef nonnull align 8 dereferenceable(8) %status_)
  ret i1 %call
}

; Function Attrs: mustprogress nounwind uwtable
define linkonce_odr void @_ZN5arrow15BasicDecimal128C2Ev(ptr noundef nonnull align 8 dereferenceable(16) %this) unnamed_addr #2 comdat align 2 {
entry:
  %this.addr = alloca ptr, align 8
  store ptr %this, ptr %this.addr, align 8
  %this1 = load ptr, ptr %this.addr, align 8
  call void @_ZN5arrow19GenericBasicDecimalINS_15BasicDecimal128ELi128ELi2EEC2Ev(ptr noundef nonnull align 8 dereferenceable(16) %this1) #12
  ret void
}

; Function Attrs: mustprogress uwtable
define linkonce_odr { i64, i64 } @_ZNO5arrow6ResultINS_10Decimal128EE10ValueOrDieEv(ptr noundef nonnull align 8 dereferenceable(24) %this) #0 comdat align 2 {
entry:
  %retval = alloca %"class.arrow::Decimal128", align 8
  %this.addr = alloca ptr, align 8
  store ptr %this, ptr %this.addr, align 8
  %this1 = load ptr, ptr %this.addr, align 8
  %call = call noundef zeroext i1 @_ZNK5arrow6ResultINS_10Decimal128EE2okEv(ptr noundef nonnull align 8 dereferenceable(24) %this1)
  %lnot = xor i1 %call, true
  %lnot2 = xor i1 %lnot, true
  %lnot3 = xor i1 %lnot2, true
  br i1 %lnot3, label %if.then, label %if.end

if.then:                                          ; preds = %entry
  %status_ = getelementptr inbounds %"class.arrow::Result", ptr %this1, i32 0, i32 0
  call void @_ZN5arrow8internal17InvalidValueOrDieERKNS_6StatusE(ptr noundef nonnull align 8 dereferenceable(8) %status_)
  br label %if.end

if.end:                                           ; preds = %if.then, %entry
  %call4 = call { i64, i64 } @_ZN5arrow6ResultINS_10Decimal128EE15MoveValueUnsafeEv(ptr noundef nonnull align 8 dereferenceable(24) %this1)
  %coerce.dive = getelementptr inbounds %"class.arrow::Decimal128", ptr %retval, i32 0, i32 0
  %coerce.dive5 = getelementptr inbounds %"class.arrow::BasicDecimal128", ptr %coerce.dive, i32 0, i32 0
  %coerce.dive6 = getelementptr inbounds %"class.arrow::GenericBasicDecimal", ptr %coerce.dive5, i32 0, i32 0
  %coerce.dive7 = getelementptr inbounds %"struct.std::array", ptr %coerce.dive6, i32 0, i32 0
  %0 = getelementptr inbounds { i64, i64 }, ptr %coerce.dive7, i32 0, i32 0
  %1 = extractvalue { i64, i64 } %call4, 0
  store i64 %1, ptr %0, align 8
  %2 = getelementptr inbounds { i64, i64 }, ptr %coerce.dive7, i32 0, i32 1
  %3 = extractvalue { i64, i64 } %call4, 1
  store i64 %3, ptr %2, align 8
  %coerce.dive8 = getelementptr inbounds %"class.arrow::Decimal128", ptr %retval, i32 0, i32 0
  %coerce.dive9 = getelementptr inbounds %"class.arrow::BasicDecimal128", ptr %coerce.dive8, i32 0, i32 0
  %coerce.dive10 = getelementptr inbounds %"class.arrow::GenericBasicDecimal", ptr %coerce.dive9, i32 0, i32 0
  %coerce.dive11 = getelementptr inbounds %"struct.std::array", ptr %coerce.dive10, i32 0, i32 0
  %4 = load { i64, i64 }, ptr %coerce.dive11, align 8
  ret { i64, i64 } %4
}

; Function Attrs: mustprogress uwtable
define void @_ZN5arrow10Decimal12810FromStringERKNSt7__cxx1112basic_stringIcSt11char_traitsIcESaIcEEE(ptr noalias sret(%"class.arrow::Result") align 8 %agg.result, ptr noundef nonnull align 8 dereferenceable(32) %s) #0 align 2 {
entry:
  %result.ptr = alloca ptr, align 8
  %s.addr = alloca ptr, align 8
  %agg.tmp = alloca %"class.std::basic_string_view", align 8
  store ptr %agg.result, ptr %result.ptr, align 8
  store ptr %s, ptr %s.addr, align 8
  %0 = load ptr, ptr %s.addr, align 8
  %call = call { i64, ptr } @_ZNKSt7__cxx1112basic_stringIcSt11char_traitsIcESaIcEEcvSt17basic_string_viewIcS2_EEv(ptr noundef nonnull align 8 dereferenceable(32) %0) #12
  %1 = getelementptr inbounds { i64, ptr }, ptr %agg.tmp, i32 0, i32 0
  %2 = extractvalue { i64, ptr } %call, 0
  store i64 %2, ptr %1, align 8
  %3 = getelementptr inbounds { i64, ptr }, ptr %agg.tmp, i32 0, i32 1
  %4 = extractvalue { i64, ptr } %call, 1
  store ptr %4, ptr %3, align 8
  %5 = getelementptr inbounds { i64, ptr }, ptr %agg.tmp, i32 0, i32 0
  %6 = load i64, ptr %5, align 8
  %7 = getelementptr inbounds { i64, ptr }, ptr %agg.tmp, i32 0, i32 1
  %8 = load ptr, ptr %7, align 8
  call void @_ZN5arrow10Decimal12810FromStringESt17basic_string_viewIcSt11char_traitsIcEE(ptr sret(%"class.arrow::Result") align 8 %agg.result, i64 %6, ptr %8)
  ret void
}

; Function Attrs: mustprogress nounwind uwtable
define linkonce_odr void @_ZN5arrow10Decimal128C2Ev(ptr noundef nonnull align 8 dereferenceable(16) %this) unnamed_addr #2 comdat align 2 {
entry:
  %this.addr = alloca ptr, align 8
  store ptr %this, ptr %this.addr, align 8
  %this1 = load ptr, ptr %this.addr, align 8
  call void @_ZN5arrow15BasicDecimal128C2Ev(ptr noundef nonnull align 8 dereferenceable(16) %this1) #12
  ret void
}

; Function Attrs: mustprogress uwtable
define void @_ZN5arrow10Decimal128C2ERKNSt7__cxx1112basic_stringIcSt11char_traitsIcESaIcEEE(ptr noundef nonnull align 8 dereferenceable(16) %this, ptr noundef nonnull align 8 dereferenceable(32) %str) unnamed_addr #0 align 2 personality ptr @__gxx_personality_v0 {
entry:
  %this.addr = alloca ptr, align 8
  %str.addr = alloca ptr, align 8
  %ref.tmp = alloca %"class.arrow::Decimal128", align 8
  %ref.tmp2 = alloca %"class.arrow::Result", align 8
  %exn.slot = alloca ptr, align 8
  %ehselector.slot = alloca i32, align 4
  store ptr %this, ptr %this.addr, align 8
  store ptr %str, ptr %str.addr, align 8
  %this1 = load ptr, ptr %this.addr, align 8
  call void @_ZN5arrow10Decimal128C2Ev(ptr noundef nonnull align 8 dereferenceable(16) %this1) #12
  %0 = load ptr, ptr %str.addr, align 8
  call void @_ZN5arrow10Decimal12810FromStringERKNSt7__cxx1112basic_stringIcSt11char_traitsIcESaIcEEE(ptr sret(%"class.arrow::Result") align 8 %ref.tmp2, ptr noundef nonnull align 8 dereferenceable(32) %0)
  %call = invoke { i64, i64 } @_ZNO5arrow6ResultINS_10Decimal128EE10ValueOrDieEv(ptr noundef nonnull align 8 dereferenceable(24) %ref.tmp2)
          to label %invoke.cont unwind label %lpad

invoke.cont:                                      ; preds = %entry
  %coerce.dive = getelementptr inbounds %"class.arrow::Decimal128", ptr %ref.tmp, i32 0, i32 0
  %coerce.dive3 = getelementptr inbounds %"class.arrow::BasicDecimal128", ptr %coerce.dive, i32 0, i32 0
  %coerce.dive4 = getelementptr inbounds %"class.arrow::GenericBasicDecimal", ptr %coerce.dive3, i32 0, i32 0
  %coerce.dive5 = getelementptr inbounds %"struct.std::array", ptr %coerce.dive4, i32 0, i32 0
  %1 = getelementptr inbounds { i64, i64 }, ptr %coerce.dive5, i32 0, i32 0
  %2 = extractvalue { i64, i64 } %call, 0
  store i64 %2, ptr %1, align 8
  %3 = getelementptr inbounds { i64, i64 }, ptr %coerce.dive5, i32 0, i32 1
  %4 = extractvalue { i64, i64 } %call, 1
  store i64 %4, ptr %3, align 8
  call void @llvm.memcpy.p0.p0.i64(ptr align 8 %this1, ptr align 8 %ref.tmp, i64 16, i1 false)
  call void @_ZN5arrow6ResultINS_10Decimal128EED2Ev(ptr noundef nonnull align 8 dereferenceable(24) %ref.tmp2) #12
  ret void

lpad:                                             ; preds = %entry
  %5 = landingpad { ptr, i32 }
          cleanup
  %6 = extractvalue { ptr, i32 } %5, 0
  store ptr %6, ptr %exn.slot, align 8
  %7 = extractvalue { ptr, i32 } %5, 1
  store i32 %7, ptr %ehselector.slot, align 4
  call void @_ZN5arrow6ResultINS_10Decimal128EED2Ev(ptr noundef nonnull align 8 dereferenceable(24) %ref.tmp2) #12
  br label %eh.resume

eh.resume:                                        ; preds = %lpad
  %exn = load ptr, ptr %exn.slot, align 8
  %sel = load i32, ptr %ehselector.slot, align 4
  %lpad.val = insertvalue { ptr, i32 } poison, ptr %exn, 0
  %lpad.val6 = insertvalue { ptr, i32 } %lpad.val, i32 %sel, 1
  resume { ptr, i32 } %lpad.val6
}